target datalayout = "e-m:e-p270:32:32-p271:32:32-p272:64:64-i64:64-i128:128-f80:128-n8:16:32:64-S128"
target triple = "x86_64-pc-linux-gnu"

%struct.Metadata = type { %struct.MetadataPayload, %struct.MetadataPayload, %struct.MetadataPayload }
%struct.MetadataPayload = type { ptr, i64 }

@stderr = external global ptr, align 8
@.str.244 = private unnamed_addr constant [11 x i8] c"Metadata:\0A\00", align 1
@.str.245 = private unnamed_addr constant [29 x i8] c"  * ICC profile:  %6d bytes\0A\00", align 1
@.str.246 = private unnamed_addr constant [29 x i8] c"  * EXIF data:    %6d bytes\0A\00", align 1
@.str.247 = private unnamed_addr constant [29 x i8] c"  * XMP data:     %6d bytes\0A\00", align 1

; Function Attrs: nounwind uwtable
define internal void @PrintMetadataInfo(ptr noundef %0, i32 noundef %1) #0 {
  %3 = alloca ptr, align 8
  %4 = alloca i32, align 4
  store ptr %0, ptr %3, align 8
  store i32 %1, ptr %4, align 4
  %5 = load ptr, ptr %3, align 8
  %6 = icmp eq ptr %5, null
  br i1 %6, label %10, label %7

7:                                                ; preds = %2
  %8 = load i32, ptr %4, align 4
  %9 = icmp eq i32 %8, 0
  br i1 %9, label %10, label %11

10:                                               ; preds = %7, %2
  br label %49

11:                                               ; preds = %7
  %12 = load ptr, ptr @stderr, align 8
  %13 = call i32 (ptr, ptr, ...) @fprintf(ptr noundef %12, ptr noundef @.str.244) #6
  %14 = load i32, ptr %4, align 4
  %15 = and i32 %14, 2
  %16 = icmp ne i32 %15, 0
  br i1 %16, label %17, label %25

17:                                               ; preds = %11
  %18 = load ptr, ptr @stderr, align 8
  %19 = load ptr, ptr %3, align 8
  %20 = getelementptr inbounds %struct.Metadata, ptr %19, i32 0, i32 1
  %21 = getelementptr inbounds %struct.MetadataPayload, ptr %20, i32 0, i32 1
  %22 = load i64, ptr %21, align 8
  %23 = trunc i64 %22 to i32
  %24 = call i32 (ptr, ptr, ...) @fprintf(ptr noundef %18, ptr noundef @.str.245, i32 noundef %23) #6
  br label %25

25:                                               ; preds = %17, %11
  %26 = load i32, ptr %4, align 4
  %27 = and i32 %26, 1
  %28 = icmp ne i32 %27, 0
  br i1 %28, label %29, label %37

29:                                               ; preds = %25
  %30 = load ptr, ptr @stderr, align 8
  %31 = load ptr, ptr %3, align 8
  %32 = getelementptr inbounds %struct.Metadata, ptr %31, i32 0, i32 0
  %33 = getelementptr inbounds %struct.MetadataPayload, ptr %32, i32 0, i32 1
  %34 = load i64, ptr %33, align 8
  %35 = trunc i64 %34 to i32
  %36 = call i32 (ptr, ptr, ...) @fprintf(ptr noundef %30, ptr noundef @.str.246, i32 noundef %35) #6
  br label %37

37:                                               ; preds = %29, %25
  %38 = load i32, ptr %4, align 4
  %39 = and i32 %38, 4
  %40 = icmp ne i32 %39, 0
  br i1 %40, label %41, label %49

41:                                               ; preds = %37
  %42 = load ptr, ptr @stderr, align 8
  %43 = load ptr, ptr %3, align 8
  %44 = getelementptr inbounds %struct.Metadata, ptr %43, i32 0, i32 2
  %45 = getelementptr inbounds %struct.MetadataPayload, ptr %44, i32 0, i32 1
  %46 = load i64, ptr %45, align 8
  %47 = trunc i64 %46 to i32
  %48 = call i32 (ptr, ptr, ...) @fprintf(ptr noundef %42, ptr noundef @.str.247, i32 noundef %47) #6
  br label %49

49:                                               ; preds = %41, %37, %10
  ret void
}